	.file	"exercise1.c"
	.text
Ltext0:
	.globl	_mytime
	.bss
	.align 4
_mytime:
	.space 4
	.globl	_testime
	.align 4
_testime:
	.space 4
	.globl	_prevtime
	.align 4
_prevtime:
	.space 4
	.globl	_resolution
	.data
	.align 4
_resolution:
	.long	1000
	.comm	_systick_period, 4, 2
	.comm	_sContext, 44, 5
	.text
	.globl	_ConfigureUART
	.def	_ConfigureUART;	.scl	2;	.type	32;	.endef
_ConfigureUART:
LFB6:
	.file 1 "exercise1.c"
	.loc 1 92 0
	.cfi_startproc
	pushl	%ebp
	.cfi_def_cfa_offset 8
	.cfi_offset 5, -8
	movl	%esp, %ebp
	.cfi_def_cfa_register 5
	subl	$24, %esp
	.loc 1 96 0
	movl	$-268433408, (%esp)
	call	_ROM_SysCtlPeripheralEnable
	.loc 1 101 0
	movl	$-268429312, (%esp)
	call	_ROM_SysCtlPeripheralEnable
	.loc 1 106 0
	movl	$1, (%esp)
	call	_ROM_GPIOPinConfigure
	.loc 1 107 0
	movl	$1025, (%esp)
	call	_ROM_GPIOPinConfigure
	.loc 1 108 0
	movl	$3, 4(%esp)
	movl	$1073758208, (%esp)
	call	_ROM_GPIOPinTypeUART
	.loc 1 113 0
	movl	$5, 4(%esp)
	movl	$1073790976, (%esp)
	call	_UARTClockSourceSet
	.loc 1 118 0
	movl	$16000000, 8(%esp)
	movl	$115200, 4(%esp)
	movl	$0, (%esp)
	call	_UARTStdioConfig
	.loc 1 119 0
	leave
	.cfi_restore 5
	.cfi_def_cfa 4, 4
	ret
	.cfi_endproc
LFE6:
	.section .rdata,"dr"
LC0:
	.ascii "%d\0"
	.text
	.globl	_SysTickIntHandler
	.def	_SysTickIntHandler;	.scl	2;	.type	32;	.endef
_SysTickIntHandler:
LFB7:
	.loc 1 127 0
	.cfi_startproc
	pushl	%ebp
	.cfi_def_cfa_offset 8
	.cfi_offset 5, -8
	movl	%esp, %ebp
	.cfi_def_cfa_register 5
	subl	$56, %esp
	.loc 1 128 0
	movl	_mytime, %eax
	addl	$1, %eax
	movl	%eax, _mytime
	.loc 1 129 0
	call	_SysTickValueGet
	movl	%eax, _testime
	.loc 1 130 0
	call	_SysTickDisable
	.loc 1 132 0
	movl	_testime, %eax
	movl	%eax, 8(%esp)
	movl	$LC0, 4(%esp)
	leal	-12(%ebp), %eax
	movl	%eax, (%esp)
	call	_usprintf
	.loc 1 133 0
	call	_ROM_IntMasterDisable
	.loc 1 134 0
	movl	$1, 20(%esp)
	movl	$46, 16(%esp)
	movl	$48, 12(%esp)
	movl	$-1, 8(%esp)
	leal	-12(%ebp), %eax
	movl	%eax, 4(%esp)
	movl	$_sContext, (%esp)
	call	_GrStringDraw
	.loc 1 136 0
	leave
	.cfi_restore 5
	.cfi_def_cfa 4, 4
	ret
	.cfi_endproc
LFE7:
	.globl	_GetSysTime
	.def	_GetSysTime;	.scl	2;	.type	32;	.endef
_GetSysTime:
LFB8:
	.loc 1 144 0
	.cfi_startproc
	pushl	%ebp
	.cfi_def_cfa_offset 8
	.cfi_offset 5, -8
	movl	%esp, %ebp
	.cfi_def_cfa_register 5
	subl	$24, %esp
	.loc 1 146 0
	movl	_mytime, %eax
	leal	1(%eax), %edx
	movl	_systick_period, %eax
	imull	%edx, %eax
	movl	%eax, -12(%ebp)
	.loc 1 147 0
	call	_SysTickValueGet
	subl	%eax, -12(%ebp)
	.loc 1 149 0
	movl	-12(%ebp), %eax
	.loc 1 150 0
	leave
	.cfi_restore 5
	.cfi_def_cfa 4, 4
	ret
	.cfi_endproc
LFE8:
	.def	___main;	.scl	2;	.type	32;	.endef
	.section .rdata,"dr"
LC1:
	.ascii "exercise1, world!\12\0"
LC2:
	.ascii "exercise1\0"
LC3:
	.ascii "Helliaqwuerting0r\0"
	.text
	.globl	_main
	.def	_main;	.scl	2;	.type	32;	.endef
_main:
LFB9:
	.loc 1 158 0
	.cfi_startproc
	pushl	%ebp
	.cfi_def_cfa_offset 8
	.cfi_offset 5, -8
	movl	%esp, %ebp
	.cfi_def_cfa_register 5
	pushl	%esi
	pushl	%ebx
	andl	$-16, %esp
	subl	$64, %esp
	.cfi_offset 6, -12
	.cfi_offset 3, -16
	.loc 1 158 0
	call	___main
	.loc 1 165 0
	call	_ROM_FPULazyStackingEnable
	.loc 1 170 0
	movl	$29361472, (%esp)
	call	_ROM_SysCtlClockSet
	.loc 1 176 0
	call	_ConfigureUART
	.loc 1 178 0
	movl	$LC1, (%esp)
	call	_UARTprintf
	.loc 1 183 0
	call	_CFAL96x64x16Init
	.loc 1 188 0
	movl	$_g_sCFAL96x64x16, 4(%esp)
	movl	$_sContext, (%esp)
	call	_GrContextInit
	.loc 1 193 0
	movw	$0, 32(%esp)
	.loc 1 194 0
	movw	$0, 34(%esp)
	.loc 1 195 0
	movl	_sContext+4, %eax
	movzwl	8(%eax), %eax
	subl	$1, %eax
	movw	%ax, 36(%esp)
	.loc 1 196 0
	movw	$23, 38(%esp)
LBB2:
	.loc 1 197 0
	movl	$_sContext, 60(%esp)
	movl	60(%esp), %eax
	movl	4(%eax), %eax
	movl	32(%eax), %eax
	movl	60(%esp), %edx
	movl	4(%edx), %edx
	movl	4(%edx), %edx
	movl	$139, 4(%esp)
	movl	%edx, (%esp)
	call	*%eax
	movl	60(%esp), %edx
	movl	%eax, 16(%edx)
LBE2:
	.loc 1 198 0
	leal	32(%esp), %eax
	movl	%eax, 4(%esp)
	movl	$_sContext, (%esp)
	call	_GrRectFill
LBB3:
	.loc 1 203 0
	movl	$_sContext, 56(%esp)
	movl	56(%esp), %eax
	movl	4(%eax), %eax
	movl	32(%eax), %eax
	movl	56(%esp), %edx
	movl	4(%edx), %edx
	movl	4(%edx), %edx
	movl	$16777215, 4(%esp)
	movl	%edx, (%esp)
	call	*%eax
	movl	56(%esp), %edx
	movl	%eax, 16(%edx)
LBE3:
	.loc 1 204 0
	leal	32(%esp), %eax
	movl	%eax, 4(%esp)
	movl	$_sContext, (%esp)
	call	_GrRectDraw
	.loc 1 209 0
	movl	$_g_sFontCm12, 4(%esp)
	movl	$_sContext, (%esp)
	call	_GrContextFontSet
LBB4:
	.loc 1 210 0
	movl	$_sContext, 52(%esp)
	movl	$LC2, 48(%esp)
	movl	52(%esp), %eax
	movl	24(%eax), %eax
	movl	%eax, (%esp)
	call	_GrFontBaselineGet
	shrl	%eax
	movl	%eax, %edx
	movl	$10, %eax
	subl	%edx, %eax
	movl	%eax, %ebx
	movl	_sContext+4, %eax
	movzwl	8(%eax), %eax
	shrw	%ax
	movzwl	%ax, %esi
	movl	$-1, 8(%esp)
	movl	48(%esp), %eax
	movl	%eax, 4(%esp)
	movl	52(%esp), %eax
	movl	%eax, (%esp)
	call	_GrStringWidthGet
	movl	%eax, %edx
	shrl	$31, %edx
	addl	%edx, %eax
	sarl	%eax
	subl	%eax, %esi
	movl	%esi, %eax
	movl	$0, 20(%esp)
	movl	%ebx, 16(%esp)
	movl	%eax, 12(%esp)
	movl	$-1, 8(%esp)
	movl	48(%esp), %eax
	movl	%eax, 4(%esp)
	movl	52(%esp), %eax
	movl	%eax, (%esp)
	call	_GrStringDraw
LBE4:
LBB5:
	.loc 1 225 0
	movl	$_sContext, 44(%esp)
LBB6:
	movl	44(%esp), %eax
	movl	4(%eax), %eax
	movl	%eax, 40(%esp)
	movl	40(%esp), %eax
	movl	36(%eax), %eax
	movl	40(%esp), %edx
	movl	4(%edx), %edx
	movl	%edx, (%esp)
	call	*%eax
LBE6:
LBE5:
	.loc 1 232 0
	movl	$0, _mytime
	.loc 1 236 0
	movl	$_SysTickIntHandler, (%esp)
	call	_SysTickIntRegister
	.loc 1 241 0
	call	_SysCtlClockGet
	movl	_resolution, %ecx
	movl	$0, %edx
	divl	%ecx
	movl	%eax, _systick_period
	.loc 1 242 0
	movl	_systick_period, %eax
	movl	%eax, (%esp)
	call	_SysTickPeriodSet
	.loc 1 247 0
	call	_IntMasterEnable
	.loc 1 252 0
	call	_SysTickIntEnable
	.loc 1 257 0
	call	_SysTickEnable
	.loc 1 274 0
	movl	$LC3, (%esp)
	call	_UARTprintf
L6:
	.loc 1 295 0 discriminator 1
	jmp	L6
	.cfi_endproc
LFE9:
Letext0:
	.file 2 "/usr/include/stdint.h"
	.file 3 "../../../../grlib/grlib.h"
	.file 4 "/usr/include/sys/types.h"
	.file 5 "../drivers/cfal96x64x16.h"